target datalayout = "e-m:e-p270:32:32-p271:32:32-p272:64:64-i64:64-i128:128-f80:128-n8:16:32:64-S128"
target triple = "x86_64-pc-linux-gnu"

%struct.ObjectAddress = type { i32, i32, i32 }
%struct.EventTriggerQueryState = type { ptr, %struct.slist_head, i8, i32, i32, i8, ptr, ptr, ptr }
%struct.slist_head = type { %struct.slist_node }
%struct.slist_node = type { ptr }
%struct.CollectedCommand = type { i32, i8, ptr, %union.anon, ptr }
%union.anon = type { %struct.anon.2 }
%struct.anon.2 = type { %struct.ObjectAddress, ptr, ptr }
%struct.anon.0 = type { i32, i32, ptr }

@currentEventTriggerState = internal global ptr null, align 8
@creating_extension = external global i8, align 1
@CurrentMemoryContext = external global ptr, align 8

; Function Attrs: inlinehint nounwind uwtable
define internal ptr @MemoryContextSwitchTo(ptr noundef %0) #6 {
  %2 = alloca ptr, align 8
  %3 = alloca ptr, align 8
  store ptr %0, ptr %2, align 8
  call void @llvm.lifetime.start.p0(i64 8, ptr %3) #10
  %4 = load ptr, ptr @CurrentMemoryContext, align 8
  store ptr %4, ptr %3, align 8
  %5 = load ptr, ptr %2, align 8
  store ptr %5, ptr @CurrentMemoryContext, align 8
  %6 = load ptr, ptr %3, align 8
  call void @llvm.lifetime.end.p0(i64 8, ptr %3) #10
  ret ptr %6
}

; Function Attrs: nounwind uwtable
define dso_local void @EventTriggerAlterTableStart(ptr noundef %0) #0 {
  %2 = alloca ptr, align 8
  %3 = alloca ptr, align 8
  %4 = alloca ptr, align 8
  %5 = alloca i32, align 4
  store ptr %0, ptr %2, align 8
  call void @llvm.lifetime.start.p0(i64 8, ptr %3) #10
  call void @llvm.lifetime.start.p0(i64 8, ptr %4) #10
  %6 = load ptr, ptr @currentEventTriggerState, align 8
  %7 = icmp ne ptr %6, null
  br i1 %7, label %8, label %13

8:                                                ; preds = %1
  %9 = load ptr, ptr @currentEventTriggerState, align 8
  %10 = getelementptr inbounds nuw %struct.EventTriggerQueryState, ptr %9, i32 0, i32 5
  %11 = load i8, ptr %10, align 4, !range !8, !noundef !9
  %12 = trunc i8 %11 to i1
  br i1 %12, label %13, label %14

13:                                               ; preds = %8, %1
  store i32 1, ptr %5, align 4
  br label %50

14:                                               ; preds = %8
  %15 = load ptr, ptr @currentEventTriggerState, align 8
  %16 = getelementptr inbounds nuw %struct.EventTriggerQueryState, ptr %15, i32 0, i32 0
  %17 = load ptr, ptr %16, align 8
  %18 = call ptr @MemoryContextSwitchTo(ptr noundef %17)
  store ptr %18, ptr %3, align 8
  %19 = call ptr @palloc(i64 noundef 56)
  store ptr %19, ptr %4, align 8
  %20 = load ptr, ptr %4, align 8
  %21 = getelementptr inbounds nuw %struct.CollectedCommand, ptr %20, i32 0, i32 0
  store i32 1, ptr %21, align 8
  %22 = load i8, ptr @creating_extension, align 1, !range !8, !noundef !9
  %23 = trunc i8 %22 to i1
  %24 = load ptr, ptr %4, align 8
  %25 = getelementptr inbounds nuw %struct.CollectedCommand, ptr %24, i32 0, i32 1
  %26 = zext i1 %23 to i8
  store i8 %26, ptr %25, align 4
  %27 = load ptr, ptr %4, align 8
  %28 = getelementptr inbounds nuw %struct.CollectedCommand, ptr %27, i32 0, i32 3
  %29 = getelementptr inbounds nuw %struct.anon.0, ptr %28, i32 0, i32 1
  store i32 1259, ptr %29, align 4
  %30 = load ptr, ptr %4, align 8
  %31 = getelementptr inbounds nuw %struct.CollectedCommand, ptr %30, i32 0, i32 3
  %32 = getelementptr inbounds nuw %struct.anon.0, ptr %31, i32 0, i32 0
  store i32 0, ptr %32, align 8
  %33 = load ptr, ptr %4, align 8
  %34 = getelementptr inbounds nuw %struct.CollectedCommand, ptr %33, i32 0, i32 3
  %35 = getelementptr inbounds nuw %struct.anon.0, ptr %34, i32 0, i32 2
  store ptr null, ptr %35, align 8
  %36 = load ptr, ptr %2, align 8
  %37 = call ptr @copyObjectImpl(ptr noundef %36)
  %38 = load ptr, ptr %4, align 8
  %39 = getelementptr inbounds nuw %struct.CollectedCommand, ptr %38, i32 0, i32 2
  store ptr %37, ptr %39, align 8
  %40 = load ptr, ptr @currentEventTriggerState, align 8
  %41 = getelementptr inbounds nuw %struct.EventTriggerQueryState, ptr %40, i32 0, i32 6
  %42 = load ptr, ptr %41, align 8
  %43 = load ptr, ptr %4, align 8
  %44 = getelementptr inbounds nuw %struct.CollectedCommand, ptr %43, i32 0, i32 4
  store ptr %42, ptr %44, align 8
  %45 = load ptr, ptr %4, align 8
  %46 = load ptr, ptr @currentEventTriggerState, align 8
  %47 = getelementptr inbounds nuw %struct.EventTriggerQueryState, ptr %46, i32 0, i32 6
  store ptr %45, ptr %47, align 8
  %48 = load ptr, ptr %3, align 8
  %49 = call ptr @MemoryContextSwitchTo(ptr noundef %48)
  store i32 0, ptr %5, align 4
  br label %50

50:                                               ; preds = %14, %13
  call void @llvm.lifetime.end.p0(i64 8, ptr %4) #10
  call void @llvm.lifetime.end.p0(i64 8, ptr %3) #10
  %51 = load i32, ptr %5, align 4
  switch i32 %51, label %53 [
    i32 0, label %52
    i32 1, label %52
  ]

52:                                               ; preds = %50, %50
  ret void

53:                                               ; preds = %50
  unreachable
}