; Function Attrs: nounwind uwtable
define dso_local void @EventTriggerAlterTableStart(ptr noundef %0) local_unnamed_addr #0 {
  %2 = load ptr, ptr @currentEventTriggerState, align 8
  %.not = icmp eq ptr %2, null
  br i1 %.not, label %22, label %3

3:                                                ; preds = %1
  %4 = getelementptr inbounds nuw i8, ptr %2, i64 28
  %5 = load i8, ptr %4, align 4, !range !9, !noundef !10
  %6 = trunc nuw i8 %5 to i1
  br i1 %6, label %22, label %7

7:                                                ; preds = %3
  %8 = load ptr, ptr %2, align 8
  %9 = load ptr, ptr @CurrentMemoryContext, align 8
  store ptr %8, ptr @CurrentMemoryContext, align 8
  %10 = tail call ptr @palloc(i64 noundef 56) #16
  store i32 1, ptr %10, align 8
  %11 = load i8, ptr @creating_extension, align 1, !range !9, !noundef !10
  %12 = getelementptr inbounds nuw i8, ptr %10, i64 4
  store i8 %11, ptr %12, align 4
  %13 = getelementptr inbounds nuw i8, ptr %10, i64 16
  %14 = getelementptr inbounds nuw i8, ptr %10, i64 20
  store i32 1259, ptr %14, align 4
  store i32 0, ptr %13, align 8
  %15 = getelementptr inbounds nuw i8, ptr %10, i64 24
  store ptr null, ptr %15, align 8
  %16 = tail call ptr @copyObjectImpl(ptr noundef %0) #16
  %17 = getelementptr inbounds nuw i8, ptr %10, i64 8
  store ptr %16, ptr %17, align 8
  %18 = load ptr, ptr @currentEventTriggerState, align 8
  %19 = getelementptr inbounds nuw i8, ptr %18, i64 32
  %20 = load ptr, ptr %19, align 8
  %21 = getelementptr inbounds nuw i8, ptr %10, i64 48
  store ptr %20, ptr %21, align 8
  store ptr %10, ptr %19, align 8
  store ptr %9, ptr @CurrentMemoryContext, align 8
  br label %22

22:                                               ; preds = %1, %3, %7
  ret void
}